; Function Attrs: nounwind uwtable
define internal range(i32 0, 2) i32 @test_handshake_rtt(i32 noundef %0) #0 {
  %2 = alloca ptr, align 8
  %3 = alloca ptr, align 8
  %4 = alloca ptr, align 8
  %5 = alloca ptr, align 8
  %6 = alloca i64, align 8
  call void @llvm.lifetime.start.p0(i64 8, ptr nonnull %2) #3
  store ptr null, ptr %2, align 8, !tbaa !4
  call void @llvm.lifetime.start.p0(i64 8, ptr nonnull %3) #3
  store ptr null, ptr %3, align 8, !tbaa !4
  call void @llvm.lifetime.start.p0(i64 8, ptr nonnull %4) #3
  store ptr null, ptr %4, align 8, !tbaa !9
  call void @llvm.lifetime.start.p0(i64 8, ptr nonnull %5) #3
  store ptr null, ptr %5, align 8, !tbaa !9
  call void @llvm.lifetime.start.p0(i64 8, ptr nonnull %6) #3
  %7 = tail call ptr @TLS_server_method() #3
  %8 = tail call ptr @TLS_client_method() #3
  %9 = icmp slt i32 %0, 2
  %10 = select i1 %9, i32 771, i32 772
  %11 = call i32 @create_ssl_ctx_pair(ptr noundef null, ptr noundef %7, ptr noundef %8, i32 noundef 769, i32 noundef %10, ptr noundef nonnull %3, ptr noundef nonnull %2, ptr noundef null, ptr noundef null) #3
  %12 = icmp ne i32 %11, 0
  %13 = zext i1 %12 to i32
  %14 = call i32 @test_true(ptr noundef nonnull @.str.1, i32 noundef 69, ptr noundef nonnull @.str.2, i32 noundef %13) #3
  %.not = icmp eq i32 %14, 0
  br i1 %.not, label %69, label %15

15:                                               ; preds = %1
  %16 = load ptr, ptr %3, align 8, !tbaa !4
  %17 = load ptr, ptr %2, align 8, !tbaa !4
  %18 = call i32 @create_ssl_objects(ptr noundef %16, ptr noundef %17, ptr noundef nonnull %5, ptr noundef nonnull %4, ptr noundef null, ptr noundef null) #3
  %19 = icmp ne i32 %18, 0
  %20 = zext i1 %19 to i32
  %21 = call i32 @test_true(ptr noundef nonnull @.str.1, i32 noundef 71, ptr noundef nonnull @.str.3, i32 noundef %20) #3
  %.not34 = icmp eq i32 %21, 0
  br i1 %.not34, label %69, label %22

22:                                               ; preds = %15
  %23 = and i32 %0, 1
  %24 = icmp eq i32 %23, 0
  %25 = load ptr, ptr %4, align 8
  %26 = load ptr, ptr %5, align 8
  %27 = select i1 %24, ptr %25, ptr %26
  %28 = icmp eq ptr %27, null
  br i1 %28, label %36, label %29

29:                                               ; preds = %22
  %30 = load i32, ptr %27, align 8, !tbaa !11
  %31 = icmp eq i32 %30, 0
  br i1 %31, label %36, label %32

32:                                               ; preds = %29
  %33 = and i32 %30, 128
  %.not35 = icmp eq i32 %33, 0
  br i1 %.not35, label %36, label %34

34:                                               ; preds = %32
  %35 = call ptr @ossl_quic_obj_get0_handshake_layer(ptr noundef nonnull %27) #3
  br label %36

36:                                               ; preds = %29, %32, %34, %22
  %37 = phi ptr [ null, %22 ], [ %35, %34 ], [ null, %32 ], [ %27, %29 ]
  %38 = call i32 @test_ptr(ptr noundef nonnull @.str.1, i32 noundef 75, ptr noundef nonnull @.str.4, ptr noundef %37) #3
  %.not36 = icmp eq i32 %38, 0
  br i1 %.not36, label %74, label %39

39:                                               ; preds = %36
  %40 = getelementptr inbounds nuw i8, ptr %37, i64 152
  %41 = call i32 @test_ptr(ptr noundef nonnull @.str.1, i32 noundef 75, ptr noundef nonnull @.str.5, ptr noundef nonnull %40) #3
  %.not37 = icmp eq i32 %41, 0
  br i1 %.not37, label %74, label %42

42:                                               ; preds = %39
  switch i32 %0, label %63 [
    i32 0, label %43
    i32 1, label %47
    i32 2, label %51
    i32 3, label %55
    i32 4, label %59
  ]

43:                                               ; preds = %42
  %44 = getelementptr inbounds nuw i8, ptr %37, i64 172
  store i32 13, ptr %44, align 4, !tbaa !19
  %45 = call i32 @ossl_statem_client_write_transition(ptr noundef nonnull %37) #3
  call void @OSSL_sleep(i64 noundef 1) #3
  store i32 9, ptr %44, align 4, !tbaa !19
  %46 = call i32 @ossl_statem_client_write_transition(ptr noundef nonnull %37) #3
  br label %63

47:                                               ; preds = %42
  %48 = getelementptr inbounds nuw i8, ptr %37, i64 172
  store i32 29, ptr %48, align 4, !tbaa !19
  %49 = call i32 @ossl_statem_server_write_transition(ptr noundef nonnull %37) #3
  call void @OSSL_sleep(i64 noundef 1) #3
  store i32 36, ptr %48, align 4, !tbaa !19
  %50 = call i32 @ossl_statem_server_write_transition(ptr noundef nonnull %37) #3
  br label %63

51:                                               ; preds = %42
  %52 = getelementptr inbounds nuw i8, ptr %37, i64 172
  store i32 13, ptr %52, align 4, !tbaa !19
  %53 = call i32 @ossl_statem_client_write_transition(ptr noundef nonnull %37) #3
  call void @OSSL_sleep(i64 noundef 1) #3
  store i32 9, ptr %52, align 4, !tbaa !19
  %54 = call i32 @ossl_statem_client_write_transition(ptr noundef nonnull %37) #3
  br label %63

55:                                               ; preds = %42
  %56 = getelementptr inbounds nuw i8, ptr %37, i64 172
  store i32 29, ptr %56, align 4, !tbaa !19
  %57 = call i32 @ossl_statem_server_write_transition(ptr noundef nonnull %37) #3
  call void @OSSL_sleep(i64 noundef 1) #3
  store i32 36, ptr %56, align 4, !tbaa !19
  %58 = call i32 @ossl_statem_server_write_transition(ptr noundef nonnull %37) #3
  br label %63

59:                                               ; preds = %42
  %60 = getelementptr inbounds nuw i8, ptr %37, i64 172
  store i32 50, ptr %60, align 4, !tbaa !19
  %61 = call i32 @ossl_statem_client_write_transition(ptr noundef nonnull %37) #3
  call void @OSSL_sleep(i64 noundef 1) #3
  store i32 9, ptr %60, align 4, !tbaa !19
  %62 = call i32 @ossl_statem_client_write_transition(ptr noundef nonnull %37) #3
  br label %63

63:                                               ; preds = %59, %55, %51, %47, %43, %42
  %64 = call i32 @SSL_get_handshake_rtt(ptr noundef nonnull %37, ptr noundef nonnull %6) #3
  %65 = call i32 @test_int_gt(ptr noundef nonnull @.str.1, i32 noundef 117, ptr noundef nonnull @.str.6, ptr noundef nonnull @.str.7, i32 noundef %64, i32 noundef 0) #3
  %.not38 = icmp eq i32 %65, 0
  br i1 %.not38, label %69, label %66

66:                                               ; preds = %63
  %67 = load i64, ptr %6, align 8, !tbaa !21
  %68 = call i32 @test_uint64_t_ge(ptr noundef nonnull @.str.1, i32 noundef 120, ptr noundef nonnull @.str.8, ptr noundef nonnull @.str.9, i64 noundef %67, i64 noundef 1000) #3
  %.not39 = icmp ne i32 %68, 0
  %spec.select = zext i1 %.not39 to i32
  br label %69

69:                                               ; preds = %66, %63, %1, %15
  %.0 = phi i32 [ 0, %63 ], [ 0, %15 ], [ 0, %1 ], [ %spec.select, %66 ]
  %70 = load ptr, ptr %5, align 8, !tbaa !9
  call void @SSL_free(ptr noundef %70) #3
  %71 = load ptr, ptr %4, align 8, !tbaa !9
  call void @SSL_free(ptr noundef %71) #3
  %72 = load ptr, ptr %3, align 8, !tbaa !4
  call void @SSL_CTX_free(ptr noundef %72) #3
  %73 = load ptr, ptr %2, align 8, !tbaa !4
  call void @SSL_CTX_free(ptr noundef %73) #3
  br label %74

74:                                               ; preds = %36, %39, %69
  %.031 = phi i32 [ %.0, %69 ], [ 0, %39 ], [ 0, %36 ]
  call void @llvm.lifetime.end.p0(i64 8, ptr nonnull %6) #3
  call void @llvm.lifetime.end.p0(i64 8, ptr nonnull %5) #3
  call void @llvm.lifetime.end.p0(i64 8, ptr nonnull %4) #3
  call void @llvm.lifetime.end.p0(i64 8, ptr nonnull %3) #3
  call void @llvm.lifetime.end.p0(i64 8, ptr nonnull %2) #3
  ret i32 %.031
}